******************************************************************************
            TI ARM Clang Linker PC v2.1.3                      
******************************************************************************
>> Linked Sun Apr  7 13:50:07 2024

OUTPUT FILE NAME:   <NEW-TIDA-010042-GaN.out>
ENTRY POINT SYMBOL: "_c_int00_noargs"  address: 0000126d


MEMORY CONFIGURATION

         name            origin    length      used     unused   attr    fill
----------------------  --------  ---------  --------  --------  ----  --------
  FLASH                 00000000   00020000  000013d0  0001ec30  R  X
  SRAM                  20200000   00008000  000003f6  00007c0a  RW X
  BCR_CONFIG            41c00000   00000080  00000000  00000080  R   
  BSL_CONFIG            41c00100   00000080  00000000  00000080  R   


SEGMENT ALLOCATION MAP

run origin  load origin   length   init length attrs members
----------  ----------- ---------- ----------- ----- -------
00000000    00000000    000013d0   000013d0    r-x
  00000000    00000000    000000c0   000000c0    r-- .intvecs
  000000c0    000000c0    00001260   00001260    r-x .text
  00001320    00001320    00000078   00000078    r-- .rodata
  00001398    00001398    00000038   00000038    r-- .cinit
20200000    20200000    000001f6   00000000    rw-
  20200000    20200000    000001b4   00000000    rw- .bss
  202001b4    202001b4    00000042   00000000    rw- .data
20207e00    20207e00    00000200   00000000    rw-
  20207e00    20207e00    00000200   00000000    rw- .stack


SECTION ALLOCATION MAP

 output                                  attributes/
section   page    origin      length       input sections
--------  ----  ----------  ----------   ----------------
.intvecs   0    00000000    000000c0     
                  00000000    000000c0     startup_mspm0g3507_ticlang.o (.intvecs)

.text      0    000000c0    00001260     
                  000000c0    00000118     TIDA-010042E3-GaN.o (.text.ADC1_IRQHandler)
                  000001d8    00000110     TIDA-010042E3-GaN.o (.text.TIMA0_IRQHandler)
                  000002e8    00000108     TIDA-010042E3-GaN.o (.text.MPPT)
                  000003f0    000000fc     ti_msp_dl_config.o (.text.SYSCFG_DL_GPIO_init)
                  000004ec    000000ec     TIDA-010042E3-GaN.o (.text.Battery_Charge_Profiling)
                  000005d8    000000d4     driverlib.a : dl_timer.o (.text.DL_Timer_initPWMMode)
                  000006ac    000000c6                 : dl_timer.o (.text.DL_TimerA_initPWMMode)
                  00000772    00000002     startup_mspm0g3507_ticlang.o (.text.Default_Handler)
                  00000774    000000c0     TIDA-010042E3-GaN.o (.text.GROUP1_IRQHandler)
                  00000834    000000b8     driverlib.a : dl_sysctl_mspm0g1x0x_g3x0x.o (.text.DL_SYSCTL_configSYSPLL)
                  000008ec    000000a0     ti_msp_dl_config.o (.text.SYSCFG_DL_PWM_1_init)
                  0000098c    0000009a     libc.a : memcpy16.S.obj (.text:memcpy)
                  00000a26    00000002     --HOLE-- [fill = 0]
                  00000a28    00000090     ti_msp_dl_config.o (.text.SYSCFG_DL_ADC12_1_init)
                  00000ab8    00000088     ti_msp_dl_config.o (.text.SYSCFG_DL_initPower)
                  00000b40    0000007c     ti_msp_dl_config.o (.text.SYSCFG_DL_COMP_0_init)
                  00000bbc    00000070     ti_msp_dl_config.o (.text.SYSCFG_DL_ADC12_0_init)
                  00000c2c    0000006c     ti_msp_dl_config.o (.text.SYSCFG_DL_SYSCTL_init)
                  00000c98    0000006c     TIDA-010042E3-GaN.o (.text.main)
                  00000d04    00000068     libc.a : copy_decompress_lzss.c.obj (.text:decompress:lzss)
                  00000d6c    00000054     TIDA-010042E3-GaN.o (.text.TIMG0_IRQHandler)
                  00000dc0    0000004c     driverlib.a : dl_adc12.o (.text.DL_ADC12_setClockConfig)
                  00000e0c    0000004c                 : dl_sysctl_mspm0g1x0x_g3x0x.o (.text.DL_SYSCTL_switchMCLKfromSYSOSCtoHSCLK)
                  00000e58    0000004c     ti_msp_dl_config.o (.text.SYSCFG_DL_TIMER_0_init)
                  00000ea4    00000044     driverlib.a : dl_timer.o (.text.DL_Timer_initTimerMode)
                  00000ee8    00000044     ti_msp_dl_config.o (.text.SYSCFG_DL_init)
                  00000f2c    00000040     driverlib.a : dl_timer.o (.text.DL_Timer_setCaptureCompareOutCtl)
                  00000f6c    0000003c     TIDA-010042E3-GaN.o (.text.ADC0_IRQHandler)
                  00000fa8    0000003c     driverlib.a : dl_timer.o (.text.DL_Timer_setCaptureCompareCtl)
                  00000fe4    0000003c     libc.a : autoinit.c.obj (.text:__TI_auto_init_nobinit_nopinit)
                  00001020    00000038     driverlib.a : dl_timer.o (.text.DL_Timer_overrideCCPOut)
                  00001058    00000038     ti_msp_dl_config.o (.text.SYSCFG_DL_TIMER_1_init)
                  00001090    00000034     driverlib.a : dl_timer.o (.text.DL_Timer_setCaptCompUpdateMethod)
                  000010c4    00000034                 : dl_timer.o (.text.DL_Timer_setCaptureCompareAction)
                  000010f8    00000034                 : dl_timer.o (.text.DL_Timer_setCaptureCompareInput)
                  0000112c    00000034                 : dl_timer.o (.text.DL_Timer_setClockConfig)
                  00001160    00000034     ti_msp_dl_config.o (.text.SYSCFG_DL_OPA_0_init)
                  00001194    00000034     ti_msp_dl_config.o (.text.SYSCFG_DL_OPA_1_init)
                  000011c8    0000002c     driverlib.a : dl_timer.o (.text.DL_Timer_setCaptureCompareValue)
                  000011f4    00000028                 : dl_adc12.o (.text.DL_Common_updateReg)
                  0000121c    00000028                 : dl_sysctl_mspm0g1x0x_g3x0x.o (.text.DL_Common_updateReg)
                  00001244    00000028                 : dl_timer.o (.text.DL_Common_updateReg)
                  0000126c    00000028     libc.a : boot_cortex_m.c.obj (.text:_c_int00_noargs)
                  00001294    00000018     driverlib.a : dl_sysctl_mspm0g1x0x_g3x0x.o (.text.DL_SYSCTL_setHSCLKSource)
                  000012ac    00000018                 : dl_timer.o (.text.DL_Timer_setLoadValue)
                  000012c4    00000014     libc.a : copy_zero_init.c.obj (.text:decompress:ZI:__TI_zero_init_nomemset)
                  000012d8    00000012            : copy_decompress_none.c.obj (.text:decompress:none)
                  000012ea    00000010     driverlib.a : dl_common.o (.text.DL_Common_delayCycles)
                  000012fa    00000002     --HOLE-- [fill = 0]
                  000012fc    0000000c                 : dl_sysctl_mspm0g1x0x_g3x0x.o (.text.DL_SYSCTL_getClockStatus)
                  00001308    00000008     libclang_rt.builtins.a : aeabi_memcpy.S.obj (.text)
                  00001310    00000004     startup_mspm0g3507_ticlang.o (.text.Reset_Handler)
                  00001314    00000004     libc.a : pre_init.c.obj (.text._system_pre_init)
                  00001318    00000004            : exit.c.obj (.text:abort)
                  0000131c    00000004     --HOLE-- [fill = 0]

.cinit     0    00001398    00000038     
                  00001398    00000014     (.cinit..data.load) [load image, compression = lzss]
                  000013ac    0000000c     (__TI_handler_table)
                  000013b8    00000008     (.cinit..bss.load) [load image, compression = zero_init]
                  000013c0    00000010     (__TI_cinit_table)

.rodata    0    00001320    00000078     
                  00001320    00000028     ti_msp_dl_config.o (.rodata.gSYSPLLConfig)
                  00001348    00000014     ti_msp_dl_config.o (.rodata.gTIMER_0TimerConfig)
                  0000135c    00000014     ti_msp_dl_config.o (.rodata.gTIMER_1TimerConfig)
                  00001370    00000008     ti_msp_dl_config.o (.rodata.gADC12_0ClockConfig)
                  00001378    00000008     ti_msp_dl_config.o (.rodata.gADC12_1ClockConfig)
                  00001380    00000008     ti_msp_dl_config.o (.rodata.gPWM_1Config)
                  00001388    00000003     ti_msp_dl_config.o (.rodata.gPWM_1ClockConfig)
                  0000138b    00000003     ti_msp_dl_config.o (.rodata.gTIMER_0ClockConfig)
                  0000138e    00000003     ti_msp_dl_config.o (.rodata.gTIMER_1ClockConfig)
                  00001391    00000007     --HOLE-- [fill = 0]

.init_array 
*          0    00000000    00000000     UNINITIALIZED

.binit     0    00000000    00000000     

.bss       0    20200000    000001b4     UNINITIALIZED
                  20200000    000000bc     (.common:gPWM_1Backup)
                  202000bc    000000bc     (.common:gTIMER_0Backup)
                  20200178    00000004     (.common:battery_voltage)
                  2020017c    00000004     (.common:battery_voltage_added)
                  20200180    00000004     (.common:battery_voltage_averaged)
                  20200184    00000004     (.common:load_current)
                  20200188    00000004     (.common:load_current_added)
                  2020018c    00000004     (.common:load_current_averaged)
                  20200190    00000004     (.common:output_current)
                  20200194    00000004     (.common:output_current_added)
                  20200198    00000004     (.common:output_current_averaged)
                  2020019c    00000004     (.common:panel_current)
                  202001a0    00000004     (.common:panel_current_added)
                  202001a4    00000004     (.common:panel_current_averaged)
                  202001a8    00000004     (.common:panel_voltage)
                  202001ac    00000004     (.common:panel_voltage_added)
                  202001b0    00000004     (.common:panel_voltage_averaged)

.data      0    202001b4    00000042     UNINITIALIZED
                  202001b4    00000004     TIDA-010042E3-GaN.o (.data.Duty)
                  202001b8    00000004     TIDA-010042E3-GaN.o (.data.MPPT_Direction)
                  202001bc    00000004     TIDA-010042E3-GaN.o (.data.MPPT_flag)
                  202001c0    00000004     TIDA-010042E3-GaN.o (.data.count_flag)
                  202001c4    00000004     TIDA-010042E3-GaN.o (.data.dutyChange)
                  202001c8    00000004     TIDA-010042E3-GaN.o (.data.high_prot_flag)
                  202001cc    00000004     TIDA-010042E3-GaN.o (.data.maxFlips)
                  202001d0    00000004     TIDA-010042E3-GaN.o (.data.panel_power)
                  202001d4    00000004     TIDA-010042E3-GaN.o (.data.prev_panel_power)
                  202001d8    00000004     TIDA-010042E3-GaN.o (.data.prot_count)
                  202001dc    00000004     TIDA-010042E3-GaN.o (.data.read_0_done)
                  202001e0    00000004     TIDA-010042E3-GaN.o (.data.read_1_done)
                  202001e4    00000004     TIDA-010042E3-GaN.o (.data.sample_count)
                  202001e8    00000002     TIDA-010042E3-GaN.o (.data.CV_Mode)
                  202001ea    00000002     TIDA-010042E3-GaN.o (.data.LOAD_OC_Triggered)
                  202001ec    00000002     TIDA-010042E3-GaN.o (.data.MPPT_Loop)
                  202001ee    00000002     TIDA-010042E3-GaN.o (.data.MPP_Loop_Exit_Counter)
                  202001f0    00000002     TIDA-010042E3-GaN.o (.data.Wait_State)
                  202001f2    00000002     TIDA-010042E3-GaN.o (.data.exitCV)
                  202001f4    00000002     TIDA-010042E3-GaN.o (.data.load_high_prot_flag)

.stack     0    20207e00    00000200     UNINITIALIZED
                  20207e00    00000004     libc.a : boot_cortex_m.c.obj (.stack)
                  20207e04    000001fc     --HOLE--

__llvm_prf_cnts 
*          0    20200000    00000000     UNINITIALIZED

__llvm_prf_bits 
*          0    20200000    00000000     UNINITIALIZED

MODULE SUMMARY

       Module                         code   ro data   rw data
       ------                         ----   -------   -------
    .\
       TIDA-010042E3-GaN.o            1496   0         126    
    +--+------------------------------+------+---------+---------+
       Total:                         1496   0         126    
                                                              
    .\syscfg\
       ti_msp_dl_config.o             1340   113       376    
    +--+------------------------------+------+---------+---------+
       Total:                         1340   113       376    
                                                              
    .\ticlang\
       startup_mspm0g3507_ticlang.o   6      192       0      
    +--+------------------------------+------+---------+---------+
       Total:                         6      192       0      
                                                              
    C:/ti/mspm0_sdk_1_00_01_03/source/ti/driverlib/lib/ticlang/m0p/mspm0g1x0x_g3x0x/driverlib.a
       dl_timer.o                     974    0         0      
       dl_sysctl_mspm0g1x0x_g3x0x.o   336    0         0      
       dl_adc12.o                     116    0         0      
       dl_common.o                    16     0         0      
    +--+------------------------------+------+---------+---------+
       Total:                         1442   0         0      
                                                              
    C:\ti\ccs1230\ccs\tools\compiler\ti-cgt-armllvm_2.1.3.LTS\lib\armv6m-ti-none-eabi/c/libc.a
       memcpy16.S.obj                 154    0         0      
       copy_decompress_lzss.c.obj     104    0         0      
       autoinit.c.obj                 60     0         0      
       boot_cortex_m.c.obj            40     0         0      
       copy_zero_init.c.obj           20     0         0      
       copy_decompress_none.c.obj     18     0         0      
       exit.c.obj                     4      0         0      
       pre_init.c.obj                 4      0         0      
    +--+------------------------------+------+---------+---------+
       Total:                         404    0         0      
                                                              
    C:\ti\ccs1230\ccs\tools\compiler\ti-cgt-armllvm_2.1.3.LTS\lib\clang/14.0.6/lib/armv6m-ti-none-eabi/libclang_rt.builtins.a
       aeabi_memcpy.S.obj             8      0         0      
    +--+------------------------------+------+---------+---------+
       Total:                         8      0         0      
                                                              
       Stack:                         0      0         512    
       Linker Generated:              0      56        0      
    +--+------------------------------+------+---------+---------+
       Grand Total:                   4696   361       1014   


LINKER GENERATED COPY TABLES

__TI_cinit_table @ 000013c0 records: 2, size/record: 8, table size: 16
	.data: load addr=00001398, load size=00000014 bytes, run addr=202001b4, run size=00000042 bytes, compression=lzss
	.bss: load addr=000013b8, load size=00000008 bytes, run addr=20200000, run size=000001b4 bytes, compression=zero_init


LINKER GENERATED HANDLER TABLE

__TI_handler_table @ 000013ac records: 3, size/record: 4, table size: 12
	index: 0, handler: __TI_decompress_lzss
	index: 1, handler: __TI_decompress_none
	index: 2, handler: __TI_zero_init


GLOBAL SYMBOLS: SORTED ALPHABETICALLY BY Name 

address   name                                 
-------   ----                                 
00000f6d  ADC0_IRQHandler                      
000000c1  ADC1_IRQHandler                      
00000773  AES_IRQHandler                       
000004ed  Battery_Charge_Profiling             
00001318  C$$EXIT                              
00000773  CANFD0_IRQHandler                    
202001e8  CV_Mode                              
00000773  DAC0_IRQHandler                      
00000dc1  DL_ADC12_setClockConfig              
000012eb  DL_Common_delayCycles                
00000835  DL_SYSCTL_configSYSPLL               
00000e0d  DL_SYSCTL_switchMCLKfromSYSOSCtoHSCLK
000006ad  DL_TimerA_initPWMMode                
000005d9  DL_Timer_initPWMMode                 
00000ea5  DL_Timer_initTimerMode               
00001021  DL_Timer_overrideCCPOut              
00001091  DL_Timer_setCaptCompUpdateMethod     
000010c5  DL_Timer_setCaptureCompareAction     
00000fa9  DL_Timer_setCaptureCompareCtl        
000010f9  DL_Timer_setCaptureCompareInput      
00000f2d  DL_Timer_setCaptureCompareOutCtl     
000011c9  DL_Timer_setCaptureCompareValue      
0000112d  DL_Timer_setClockConfig              
00000773  DMA_IRQHandler                       
00000773  Default_Handler                      
202001b4  Duty                                 
00000773  GROUP0_IRQHandler                    
00000775  GROUP1_IRQHandler                    
00000773  HardFault_Handler                    
00000773  I2C0_IRQHandler                      
00000773  I2C1_IRQHandler                      
202001ea  LOAD_OC_Triggered                    
000002e9  MPPT                                 
202001b8  MPPT_Direction                       
202001ec  MPPT_Loop                            
202001bc  MPPT_flag                            
202001ee  MPP_Loop_Exit_Counter                
00000773  NMI_Handler                          
00000773  PendSV_Handler                       
00000773  RTC_IRQHandler                       
00001311  Reset_Handler                        
00000773  SPI0_IRQHandler                      
00000773  SPI1_IRQHandler                      
00000773  SVC_Handler                          
00000bbd  SYSCFG_DL_ADC12_0_init               
00000a29  SYSCFG_DL_ADC12_1_init               
00000b41  SYSCFG_DL_COMP_0_init                
000003f1  SYSCFG_DL_GPIO_init                  
00001161  SYSCFG_DL_OPA_0_init                 
00001195  SYSCFG_DL_OPA_1_init                 
000008ed  SYSCFG_DL_PWM_1_init                 
00000c2d  SYSCFG_DL_SYSCTL_init                
00000e59  SYSCFG_DL_TIMER_0_init               
00001059  SYSCFG_DL_TIMER_1_init               
00000ee9  SYSCFG_DL_init                       
00000ab9  SYSCFG_DL_initPower                  
00000773  SysTick_Handler                      
000001d9  TIMA0_IRQHandler                     
00000773  TIMA1_IRQHandler                     
00000d6d  TIMG0_IRQHandler                     
00000773  TIMG12_IRQHandler                    
00000773  TIMG6_IRQHandler                     
00000773  TIMG7_IRQHandler                     
00000773  TIMG8_IRQHandler                     
00000773  UART0_IRQHandler                     
00000773  UART1_IRQHandler                     
00000773  UART2_IRQHandler                     
00000773  UART3_IRQHandler                     
202001f0  Wait_State                           
20208000  __STACK_END                          
00000200  __STACK_SIZE                         
000013c0  __TI_CINIT_Base                      
000013d0  __TI_CINIT_Limit                     
000013d0  __TI_CINIT_Warm                      
000013ac  __TI_Handler_Table_Base              
000013b8  __TI_Handler_Table_Limit             
00000fe5  __TI_auto_init_nobinit_nopinit       
00000d05  __TI_decompress_lzss                 
000012d9  __TI_decompress_none                 
ffffffff  __TI_pprof_out_hndl                  
ffffffff  __TI_prof_data_size                  
ffffffff  __TI_prof_data_start                 
00000000  __TI_static_base__                   
000012c5  __TI_zero_init_nomemset              
00001309  __aeabi_memcpy                       
00001309  __aeabi_memcpy4                      
00001309  __aeabi_memcpy8                      
ffffffff  __binit__                            
UNDEFED   __mpu_init                           
20207e00  __stack                              
20200000  __start___llvm_prf_bits              
20200000  __start___llvm_prf_cnts              
20200000  __stop___llvm_prf_bits               
20200000  __stop___llvm_prf_cnts               
0000126d  _c_int00_noargs                      
UNDEFED   _system_post_cinit                   
00001315  _system_pre_init                     
00001319  abort                                
20200178  battery_voltage                      
2020017c  battery_voltage_added                
20200180  battery_voltage_averaged             
ffffffff  binit                                
202001c0  count_flag                           
202001c4  dutyChange                           
202001f2  exitCV                               
20200000  gPWM_1Backup                         
202000bc  gTIMER_0Backup                       
202001c8  high_prot_flag                       
00000000  interruptVectors                     
20200184  load_current                         
20200188  load_current_added                   
2020018c  load_current_averaged                
202001f4  load_high_prot_flag                  
00000c99  main                                 
202001cc  maxFlips                             
0000098d  memcpy                               
20200190  output_current                       
20200194  output_current_added                 
20200198  output_current_averaged              
2020019c  panel_current                        
202001a0  panel_current_added                  
202001a4  panel_current_averaged               
202001d0  panel_power                          
202001a8  panel_voltage                        
202001ac  panel_voltage_added                  
202001b0  panel_voltage_averaged               
202001d4  prev_panel_power                     
202001d8  prot_count                           
202001dc  read_0_done                          
202001e0  read_1_done                          
202001e4  sample_count                         


GLOBAL SYMBOLS: SORTED BY Symbol Address 

address   name                                 
-------   ----                                 
00000000  __TI_static_base__                   
00000000  interruptVectors                     
000000c1  ADC1_IRQHandler                      
000001d9  TIMA0_IRQHandler                     
00000200  __STACK_SIZE                         
000002e9  MPPT                                 
000003f1  SYSCFG_DL_GPIO_init                  
000004ed  Battery_Charge_Profiling             
000005d9  DL_Timer_initPWMMode                 
000006ad  DL_TimerA_initPWMMode                
00000773  AES_IRQHandler                       
00000773  CANFD0_IRQHandler                    
00000773  DAC0_IRQHandler                      
00000773  DMA_IRQHandler                       
00000773  Default_Handler                      
00000773  GROUP0_IRQHandler                    
00000773  HardFault_Handler                    
00000773  I2C0_IRQHandler                      
00000773  I2C1_IRQHandler                      
00000773  NMI_Handler                          
00000773  PendSV_Handler                       
00000773  RTC_IRQHandler                       
00000773  SPI0_IRQHandler                      
00000773  SPI1_IRQHandler                      
00000773  SVC_Handler                          
00000773  SysTick_Handler                      
00000773  TIMA1_IRQHandler                     
00000773  TIMG12_IRQHandler                    
00000773  TIMG6_IRQHandler                     
00000773  TIMG7_IRQHandler                     
00000773  TIMG8_IRQHandler                     
00000773  UART0_IRQHandler                     
00000773  UART1_IRQHandler                     
00000773  UART2_IRQHandler                     
00000773  UART3_IRQHandler                     
00000775  GROUP1_IRQHandler                    
00000835  DL_SYSCTL_configSYSPLL               
000008ed  SYSCFG_DL_PWM_1_init                 
0000098d  memcpy                               
00000a29  SYSCFG_DL_ADC12_1_init               
00000ab9  SYSCFG_DL_initPower                  
00000b41  SYSCFG_DL_COMP_0_init                
00000bbd  SYSCFG_DL_ADC12_0_init               
00000c2d  SYSCFG_DL_SYSCTL_init                
00000c99  main                                 
00000d05  __TI_decompress_lzss                 
00000d6d  TIMG0_IRQHandler                     
00000dc1  DL_ADC12_setClockConfig              
00000e0d  DL_SYSCTL_switchMCLKfromSYSOSCtoHSCLK
00000e59  SYSCFG_DL_TIMER_0_init               
00000ea5  DL_Timer_initTimerMode               
00000ee9  SYSCFG_DL_init                       
00000f2d  DL_Timer_setCaptureCompareOutCtl     
00000f6d  ADC0_IRQHandler                      
00000fa9  DL_Timer_setCaptureCompareCtl        
00000fe5  __TI_auto_init_nobinit_nopinit       
00001021  DL_Timer_overrideCCPOut              
00001059  SYSCFG_DL_TIMER_1_init               
00001091  DL_Timer_setCaptCompUpdateMethod     
000010c5  DL_Timer_setCaptureCompareAction     
000010f9  DL_Timer_setCaptureCompareInput      
0000112d  DL_Timer_setClockConfig              
00001161  SYSCFG_DL_OPA_0_init                 
00001195  SYSCFG_DL_OPA_1_init                 
000011c9  DL_Timer_setCaptureCompareValue      
0000126d  _c_int00_noargs                      
000012c5  __TI_zero_init_nomemset              
000012d9  __TI_decompress_none                 
000012eb  DL_Common_delayCycles                
00001309  __aeabi_memcpy                       
00001309  __aeabi_memcpy4                      
00001309  __aeabi_memcpy8                      
00001311  Reset_Handler                        
00001315  _system_pre_init                     
00001318  C$$EXIT                              
00001319  abort                                
000013ac  __TI_Handler_Table_Base              
000013b8  __TI_Handler_Table_Limit             
000013c0  __TI_CINIT_Base                      
000013d0  __TI_CINIT_Limit                     
000013d0  __TI_CINIT_Warm                      
20200000  __start___llvm_prf_bits              
20200000  __start___llvm_prf_cnts              
20200000  __stop___llvm_prf_bits               
20200000  __stop___llvm_prf_cnts               
20200000  gPWM_1Backup                         
202000bc  gTIMER_0Backup                       
20200178  battery_voltage                      
2020017c  battery_voltage_added                
20200180  battery_voltage_averaged             
20200184  load_current                         
20200188  load_current_added                   
2020018c  load_current_averaged                
20200190  output_current                       
20200194  output_current_added                 
20200198  output_current_averaged              
2020019c  panel_current                        
202001a0  panel_current_added                  
202001a4  panel_current_averaged               
202001a8  panel_voltage                        
202001ac  panel_voltage_added                  
202001b0  panel_voltage_averaged               
202001b4  Duty                                 
202001b8  MPPT_Direction                       
202001bc  MPPT_flag                            
202001c0  count_flag                           
202001c4  dutyChange                           
202001c8  high_prot_flag                       
202001cc  maxFlips                             
202001d0  panel_power                          
202001d4  prev_panel_power                     
202001d8  prot_count                           
202001dc  read_0_done                          
202001e0  read_1_done                          
202001e4  sample_count                         
202001e8  CV_Mode                              
202001ea  LOAD_OC_Triggered                    
202001ec  MPPT_Loop                            
202001ee  MPP_Loop_Exit_Counter                
202001f0  Wait_State                           
202001f2  exitCV                               
202001f4  load_high_prot_flag                  
20207e00  __stack                              
20208000  __STACK_END                          
ffffffff  __TI_pprof_out_hndl                  
ffffffff  __TI_prof_data_size                  
ffffffff  __TI_prof_data_start                 
ffffffff  __binit__                            
ffffffff  binit                                
UNDEFED   __mpu_init                           
UNDEFED   _system_post_cinit                   

[131 symbols]
